#include <math.h>
#include <stdio.h>
#include <stdlib.h>
#include <string.h>


int main(int argc, char* argv[])
{
	int m,n,i,j,t,s,k=0;
	int a[9][9],max=0;
	scanf("%d,%d",&m,&n);
	for(i=0;i<m;i++){
		for(j=0;j<n;j++){			
		scanf("%d",&a[i][j]);
	}
	}

	for(i=0;i<m;i++){
		for(j=0;j<n;j++){
			if(a[i][j]>=max){
				max=a[i][j];
				s=i;
				t=j;
		}}
		
		for(i=0;i<m;i++,i!=s){
			if(a[i][t]>max){
			printf("%d+%d",s,t);
			k=1;
			break;
	}}}
		if(k!=1){
			printf("No");
	}

	return 0;
}
