; ModuleID = '35/345.c'
source_filename = "35/345.c"
target datalayout = "e-m:e-p270:32:32-p271:32:32-p272:64:64-i64:64-f80:128-n8:16:32:64-S128"
target triple = "x86_64-pc-linux-gnu"

@.str = private unnamed_addr constant [6 x i8] c"%d,%d\00", align 1
@.str.1 = private unnamed_addr constant [3 x i8] c"%d\00", align 1
@.str.2 = private unnamed_addr constant [6 x i8] c"%d+%d\00", align 1
@.str.3 = private unnamed_addr constant [3 x i8] c"No\00", align 1

; Function Attrs: noinline nounwind uwtable
define dso_local i32 @main(i32 %0, i8** %1) #0 {
  %3 = alloca i32, align 4
  %4 = alloca i32, align 4
  %5 = alloca i8**, align 8
  %6 = alloca i32, align 4
  %7 = alloca i32, align 4
  %8 = alloca i32, align 4
  %9 = alloca i32, align 4
  %10 = alloca i32, align 4
  %11 = alloca i32, align 4
  %12 = alloca i32, align 4
  %13 = alloca [9 x [9 x i32]], align 16
  %14 = alloca i32, align 4
  store i32 0, i32* %3, align 4
  store i32 %0, i32* %4, align 4
  store i8** %1, i8*** %5, align 8
  store i32 0, i32* %12, align 4
  store i32 0, i32* %14, align 4
  %15 = call i32 (i8*, ...) @__isoc99_scanf(i8* getelementptr inbounds ([6 x i8], [6 x i8]* @.str, i64 0, i64 0), i32* %6, i32* %7)
  store i32 0, i32* %8, align 4
  br label %16

16:                                               ; preds = %37, %2
  %17 = load i32, i32* %8, align 4
  %18 = load i32, i32* %6, align 4
  %19 = icmp slt i32 %17, %18
  br i1 %19, label %20, label %40

20:                                               ; preds = %16
  store i32 0, i32* %9, align 4
  br label %21

21:                                               ; preds = %33, %20
  %22 = load i32, i32* %9, align 4
  %23 = load i32, i32* %7, align 4
  %24 = icmp slt i32 %22, %23
  br i1 %24, label %25, label %36

25:                                               ; preds = %21
  %26 = load i32, i32* %8, align 4
  %27 = sext i32 %26 to i64
  %28 = getelementptr inbounds [9 x [9 x i32]], [9 x [9 x i32]]* %13, i64 0, i64 %27
  %29 = load i32, i32* %9, align 4
  %30 = sext i32 %29 to i64
  %31 = getelementptr inbounds [9 x i32], [9 x i32]* %28, i64 0, i64 %30
  %32 = call i32 (i8*, ...) @__isoc99_scanf(i8* getelementptr inbounds ([3 x i8], [3 x i8]* @.str.1, i64 0, i64 0), i32* %31)
  br label %33

33:                                               ; preds = %25
  %34 = load i32, i32* %9, align 4
  %35 = add nsw i32 %34, 1
  store i32 %35, i32* %9, align 4
  br label %21

36:                                               ; preds = %21
  br label %37

37:                                               ; preds = %36
  %38 = load i32, i32* %8, align 4
  %39 = add nsw i32 %38, 1
  store i32 %39, i32* %8, align 4
  br label %16

40:                                               ; preds = %16
  store i32 0, i32* %8, align 4
  br label %41

41:                                               ; preds = %102, %40
  %42 = load i32, i32* %8, align 4
  %43 = load i32, i32* %6, align 4
  %44 = icmp slt i32 %42, %43
  br i1 %44, label %45, label %105

45:                                               ; preds = %41
  store i32 0, i32* %9, align 4
  br label %46

46:                                               ; preds = %71, %45
  %47 = load i32, i32* %9, align 4
  %48 = load i32, i32* %7, align 4
  %49 = icmp slt i32 %47, %48
  br i1 %49, label %50, label %74

50:                                               ; preds = %46
  %51 = load i32, i32* %8, align 4
  %52 = sext i32 %51 to i64
  %53 = getelementptr inbounds [9 x [9 x i32]], [9 x [9 x i32]]* %13, i64 0, i64 %52
  %54 = load i32, i32* %9, align 4
  %55 = sext i32 %54 to i64
  %56 = getelementptr inbounds [9 x i32], [9 x i32]* %53, i64 0, i64 %55
  %57 = load i32, i32* %56, align 4
  %58 = load i32, i32* %14, align 4
  %59 = icmp sge i32 %57, %58
  br i1 %59, label %60, label %70

60:                                               ; preds = %50
  %61 = load i32, i32* %8, align 4
  %62 = sext i32 %61 to i64
  %63 = getelementptr inbounds [9 x [9 x i32]], [9 x [9 x i32]]* %13, i64 0, i64 %62
  %64 = load i32, i32* %9, align 4
  %65 = sext i32 %64 to i64
  %66 = getelementptr inbounds [9 x i32], [9 x i32]* %63, i64 0, i64 %65
  %67 = load i32, i32* %66, align 4
  store i32 %67, i32* %14, align 4
  %68 = load i32, i32* %8, align 4
  store i32 %68, i32* %11, align 4
  %69 = load i32, i32* %9, align 4
  store i32 %69, i32* %10, align 4
  br label %70

70:                                               ; preds = %60, %50
  br label %71

71:                                               ; preds = %70
  %72 = load i32, i32* %9, align 4
  %73 = add nsw i32 %72, 1
  store i32 %73, i32* %9, align 4
  br label %46

74:                                               ; preds = %46
  store i32 0, i32* %8, align 4
  br label %75

75:                                               ; preds = %94, %74
  %76 = load i32, i32* %8, align 4
  %77 = load i32, i32* %6, align 4
  %78 = icmp slt i32 %76, %77
  br i1 %78, label %79, label %101

79:                                               ; preds = %75
  %80 = load i32, i32* %8, align 4
  %81 = sext i32 %80 to i64
  %82 = getelementptr inbounds [9 x [9 x i32]], [9 x [9 x i32]]* %13, i64 0, i64 %81
  %83 = load i32, i32* %10, align 4
  %84 = sext i32 %83 to i64
  %85 = getelementptr inbounds [9 x i32], [9 x i32]* %82, i64 0, i64 %84
  %86 = load i32, i32* %85, align 4
  %87 = load i32, i32* %14, align 4
  %88 = icmp sgt i32 %86, %87
  br i1 %88, label %89, label %93

89:                                               ; preds = %79
  %90 = load i32, i32* %11, align 4
  %91 = load i32, i32* %10, align 4
  %92 = call i32 (i8*, ...) @printf(i8* getelementptr inbounds ([6 x i8], [6 x i8]* @.str.2, i64 0, i64 0), i32 %90, i32 %91)
  store i32 1, i32* %12, align 4
  br label %101

93:                                               ; preds = %79
  br label %94

94:                                               ; preds = %93
  %95 = load i32, i32* %8, align 4
  %96 = add nsw i32 %95, 1
  store i32 %96, i32* %8, align 4
  %97 = load i32, i32* %8, align 4
  %98 = load i32, i32* %11, align 4
  %99 = icmp ne i32 %97, %98
  %100 = zext i1 %99 to i32
  br label %75

101:                                              ; preds = %89, %75
  br label %102

102:                                              ; preds = %101
  %103 = load i32, i32* %8, align 4
  %104 = add nsw i32 %103, 1
  store i32 %104, i32* %8, align 4
  br label %41

105:                                              ; preds = %41
  %106 = load i32, i32* %12, align 4
  %107 = icmp ne i32 %106, 1
  br i1 %107, label %108, label %110

108:                                              ; preds = %105
  %109 = call i32 (i8*, ...) @printf(i8* getelementptr inbounds ([3 x i8], [3 x i8]* @.str.3, i64 0, i64 0))
  br label %110

110:                                              ; preds = %108, %105
  ret i32 0
}

declare dso_local i32 @__isoc99_scanf(i8*, ...) #1

declare dso_local i32 @printf(i8*, ...) #1


!llvm.module.flags = !{!0}
!llvm.ident = !{!1}

!0 = !{i32 1, !"wchar_size", i32 4}
!1 = !{!"clang version 10.0.0-4ubuntu1 "}
